; Function Attrs: mustprogress uwtable
define noundef zeroext i1 @_ZN4File8TruncateEv(ptr noundef nonnull align 8 dereferenceable(8256) %0) local_unnamed_addr #2 align 2 {
  %2 = getelementptr inbounds i8, ptr %0, i64 8
  %3 = load i64, ptr %2, align 8
  %4 = trunc i64 %3 to i32
  %5 = load ptr, ptr %0, align 8
  %6 = getelementptr inbounds i8, ptr %5, i64 48
  %7 = load ptr, ptr %6, align 8
  %8 = tail call noundef i64 %7(ptr noundef nonnull align 8 dereferenceable(8256) %0)
  %9 = tail call i32 @ftruncate64(i32 noundef %4, i64 noundef %8) #18
  %10 = icmp eq i32 %9, 0
  ret i1 %10
}